; Function Attrs: mustprogress nounwind uwtable
define noundef nonnull align 8 dereferenceable(20) ptr @_ZN6icu_756number20FormattedNumberRangeaSEOS1_(ptr noundef nonnull returned align 8 dereferenceable(20) %this, ptr nocapture noundef nonnull align 8 dereferenceable(20) %src) local_unnamed_addr #0 align 2 {
entry:
  %fData = getelementptr inbounds i8, ptr %this, i64 8
  %0 = load ptr, ptr %fData, align 8
  %isnull = icmp eq ptr %0, null
  br i1 %isnull, label %delete.end, label %delete.notnull

delete.notnull:                                   ; preds = %entry
  %vtable = load ptr, ptr %0, align 8
  %vfn = getelementptr inbounds i8, ptr %vtable, i64 8
  %1 = load ptr, ptr %vfn, align 8
  tail call void %1(ptr noundef nonnull align 8 dereferenceable(452) %0) #10
  br label %delete.end

delete.end:                                       ; preds = %delete.notnull, %entry
  %fData2 = getelementptr inbounds i8, ptr %src, i64 8
  %2 = load ptr, ptr %fData2, align 8
  store ptr %2, ptr %fData, align 8
  store ptr null, ptr %fData2, align 8
  %fErrorCode = getelementptr inbounds i8, ptr %src, i64 16
  %3 = load i32, ptr %fErrorCode, align 8
  %fErrorCode5 = getelementptr inbounds i8, ptr %this, i64 16
  store i32 %3, ptr %fErrorCode5, align 8
  store i32 27, ptr %fErrorCode, align 8
  ret ptr %this
}